target datalayout = "e-m:e-p270:32:32-p271:32:32-p272:64:64-i64:64-i128:128-f80:128-n8:16:32:64-S128"
target triple = "x86_64-pc-linux-gnu"

; Function Attrs: mustprogress uwtable
define internal void @_ZL23reconstruct_clb_attimesPvmjPKh(ptr noundef %0, i64 noundef %1, i32 noundef %2, ptr noundef %3) #4 {
  %5 = alloca ptr, align 8
  %6 = alloca i64, align 8
  %7 = alloca i32, align 4
  %8 = alloca ptr, align 8
  %9 = alloca ptr, align 8
  %10 = alloca i32, align 4
  store ptr %0, ptr %5, align 8, !tbaa !140
  store i64 %1, ptr %6, align 8, !tbaa !78
  store i32 %2, ptr %7, align 4, !tbaa !57
  store ptr %3, ptr %8, align 8, !tbaa !79
  call void @llvm.lifetime.start.p0(i64 8, ptr %9) #3
  %11 = load ptr, ptr %5, align 8, !tbaa !140
  store ptr %11, ptr %9, align 8, !tbaa !6
  call void @llvm.lifetime.start.p0(i64 4, ptr %10) #3
  %12 = load ptr, ptr %8, align 8, !tbaa !79
  %13 = icmp ne ptr %12, null
  br i1 %13, label %14, label %17

14:                                               ; preds = %4
  %15 = load ptr, ptr %8, align 8, !tbaa !79
  %16 = call i64 @strlen(ptr noundef %15) #21
  br label %18

17:                                               ; preds = %4
  br label %18

18:                                               ; preds = %17, %14
  %19 = phi i64 [ %16, %14 ], [ 0, %17 ]
  %20 = trunc i64 %19 to i32
  store i32 %20, ptr %10, align 4, !tbaa !57
  %21 = load ptr, ptr %9, align 8, !tbaa !6
  %22 = load i64, ptr %6, align 8, !tbaa !78
  %23 = load i32, ptr %7, align 4, !tbaa !57
  %24 = load ptr, ptr %8, align 8, !tbaa !79
  %25 = load i32, ptr %10, align 4, !tbaa !57
  call void @_ZN5Yosys7FstData28reconstruct_callback_attimesEmjPKhj(ptr noundef nonnull align 8 dereferenceable(440) %21, i64 noundef %22, i32 noundef %23, ptr noundef %24, i32 noundef %25)
  call void @llvm.lifetime.end.p0(i64 4, ptr %10) #3
  call void @llvm.lifetime.end.p0(i64 8, ptr %9) #3
  ret void
}