; Function Attrs: mustprogress uwtable
define internal void @_ZL23reconstruct_clb_attimesPvmjPKh(ptr noundef %0, i64 noundef %1, i32 noundef %2, ptr noundef captures(address_is_null) %3) #3 personality ptr @__gxx_personality_v0 {
  %.not = icmp eq ptr %3, null
  br i1 %.not, label %.split7, label %.split

.split:                                           ; preds = %4
  tail call void @_ZN5Yosys7FstData28reconstruct_callback_attimesEmjPKhj(ptr noundef nonnull align 8 dereferenceable(440) %0, i64 noundef %1, i32 noundef %2, ptr noundef nonnull %3, i32 poison)
  br label %.split7

.split7:                                          ; preds = %4, %.split
  ret void
}